target datalayout = "e-m:e-p270:32:32-p271:32:32-p272:64:64-i64:64-i128:128-f80:128-n8:16:32:64-S128"
target triple = "x86_64-pc-linux-gnu"

@.str.207 = private unnamed_addr constant [16 x i8] c"systemd_journal\00", align 1
@sje_handle = internal global ptr null, align 8
@.str.208 = private unnamed_addr constant [13 x i8] c"wtap_fts_rec\00", align 1
@.str.209 = private unnamed_addr constant [18 x i8] c"pcapng.block_type\00", align 1
@.str.210 = private unnamed_addr constant [11 x i8] c"media_type\00", align 1
@.str.211 = private unnamed_addr constant [28 x i8] c"application/vnd.fdo.journal\00", align 1

; Function Attrs: null_pointer_is_valid sspstrong uwtable
define hidden void @proto_reg_handoff_systemd_journal() #0 {
  %1 = alloca i32, align 4
  call void @llvm.lifetime.start.p0(i64 4, ptr %1) #7
  %2 = call i32 @wtap_name_to_file_type_subtype(ptr noundef @.str.207)
  store i32 %2, ptr %1, align 4
  %3 = load i32, ptr %1, align 4
  %4 = icmp ne i32 %3, -1
  br i1 %4, label %5, label %8

5:                                                ; preds = %0
  %6 = load i32, ptr %1, align 4
  %7 = load ptr, ptr @sje_handle, align 8
  call void @dissector_add_uint(ptr noundef @.str.208, i32 noundef %6, ptr noundef %7)
  br label %8

8:                                                ; preds = %5, %0
  %9 = load ptr, ptr @sje_handle, align 8
  call void @dissector_add_uint(ptr noundef @.str.209, i32 noundef 9, ptr noundef %9)
  %10 = load ptr, ptr @sje_handle, align 8
  call void @dissector_add_string(ptr noundef @.str.210, ptr noundef @.str.211, ptr noundef %10)
  call void @llvm.lifetime.end.p0(i64 4, ptr %1) #7
  ret void
}