; Function Attrs: null_pointer_is_valid sspstrong uwtable
define hidden void @proto_reg_handoff_systemd_journal() local_unnamed_addr #0 {
  %1 = tail call i32 @wtap_name_to_file_type_subtype(ptr noundef nonnull @.str.207)
  %.not = icmp eq i32 %1, -1
  br i1 %.not, label %4, label %2

2:                                                ; preds = %0
  %3 = load ptr, ptr @sje_handle, align 8
  tail call void @dissector_add_uint(ptr noundef nonnull @.str.208, i32 noundef %1, ptr noundef %3)
  br label %4

4:                                                ; preds = %2, %0
  %5 = load ptr, ptr @sje_handle, align 8
  tail call void @dissector_add_uint(ptr noundef nonnull @.str.209, i32 noundef 9, ptr noundef %5)
  %6 = load ptr, ptr @sje_handle, align 8
  tail call void @dissector_add_string(ptr noundef nonnull @.str.210, ptr noundef nonnull @.str.211, ptr noundef %6)
  ret void
}